target datalayout = "e-m:e-p270:32:32-p271:32:32-p272:64:64-i64:64-i128:128-f80:128-n8:16:32:64-S128"
target triple = "x86_64-pc-linux-gnu"

; Function Attrs: alwaysinline nounwind willreturn memory(none) uwtable
define internal i32 @av_clip_uintp2_c(i32 noundef %0, i32 noundef %1) #5 {
  %3 = alloca i32, align 4
  %4 = alloca i32, align 4
  %5 = alloca i32, align 4
  store i32 %0, ptr %4, align 4, !tbaa !9
  store i32 %1, ptr %5, align 4, !tbaa !9
  %6 = load i32, ptr %4, align 4, !tbaa !9
  %7 = load i32, ptr %5, align 4, !tbaa !9
  %8 = shl i32 1, %7
  %9 = sub i32 %8, 1
  %10 = xor i32 %9, -1
  %11 = and i32 %6, %10
  %12 = icmp ne i32 %11, 0
  br i1 %12, label %13, label %21

13:                                               ; preds = %2
  %14 = load i32, ptr %4, align 4, !tbaa !9
  %15 = xor i32 %14, -1
  %16 = ashr i32 %15, 31
  %17 = load i32, ptr %5, align 4, !tbaa !9
  %18 = shl i32 1, %17
  %19 = sub i32 %18, 1
  %20 = and i32 %16, %19
  store i32 %20, ptr %3, align 4
  br label %23

21:                                               ; preds = %2
  %22 = load i32, ptr %4, align 4, !tbaa !9
  store i32 %22, ptr %3, align 4
  br label %23

23:                                               ; preds = %21, %13
  %24 = load i32, ptr %3, align 4
  ret i32 %24
}

; Function Attrs: inlinehint nounwind uwtable
define internal void @pred16x16_plane_compat_9_c(ptr noundef %0, i64 noundef %1, i32 noundef %2, i32 noundef %3) #6 {
  %5 = alloca ptr, align 8
  %6 = alloca i64, align 8
  %7 = alloca i32, align 4
  %8 = alloca i32, align 4
  %9 = alloca i32, align 4
  %10 = alloca i32, align 4
  %11 = alloca i32, align 4
  %12 = alloca i32, align 4
  %13 = alloca ptr, align 8
  %14 = alloca i32, align 4
  %15 = alloca ptr, align 8
  %16 = alloca ptr, align 8
  %17 = alloca ptr, align 8
  %18 = alloca i32, align 4
  %19 = alloca i32, align 4
  %20 = alloca i32, align 4
  store ptr %0, ptr %5, align 8, !tbaa !12
  store i64 %1, ptr %6, align 8, !tbaa !14
  store i32 %2, ptr %7, align 4, !tbaa !9
  store i32 %3, ptr %8, align 4, !tbaa !9
  call void @llvm.lifetime.start.p0(i64 4, ptr %9) #9
  call void @llvm.lifetime.start.p0(i64 4, ptr %10) #9
  call void @llvm.lifetime.start.p0(i64 4, ptr %11) #9
  call void @llvm.lifetime.start.p0(i64 4, ptr %12) #9
  call void @llvm.lifetime.start.p0(i64 8, ptr %13) #9
  %21 = load ptr, ptr %5, align 8, !tbaa !12
  store ptr %21, ptr %13, align 8, !tbaa !16
  call void @llvm.lifetime.start.p0(i64 4, ptr %14) #9
  %22 = load i64, ptr %6, align 8, !tbaa !14
  %23 = ashr i64 %22, 1
  %24 = trunc i64 %23 to i32
  store i32 %24, ptr %14, align 4, !tbaa !9
  call void @llvm.lifetime.start.p0(i64 8, ptr %15) #9
  %25 = load ptr, ptr %13, align 8, !tbaa !16
  %26 = getelementptr inbounds i16, ptr %25, i64 7
  %27 = load i32, ptr %14, align 4, !tbaa !9
  %28 = sext i32 %27 to i64
  %29 = sub i64 0, %28
  %30 = getelementptr inbounds i16, ptr %26, i64 %29
  store ptr %30, ptr %15, align 8, !tbaa !16
  call void @llvm.lifetime.start.p0(i64 8, ptr %16) #9
  %31 = load ptr, ptr %13, align 8, !tbaa !16
  %32 = load i32, ptr %14, align 4, !tbaa !9
  %33 = mul nsw i32 8, %32
  %34 = sext i32 %33 to i64
  %35 = getelementptr inbounds i16, ptr %31, i64 %34
  %36 = getelementptr inbounds i16, ptr %35, i64 -1
  store ptr %36, ptr %16, align 8, !tbaa !16
  call void @llvm.lifetime.start.p0(i64 8, ptr %17) #9
  %37 = load ptr, ptr %16, align 8, !tbaa !16
  %38 = load i32, ptr %14, align 4, !tbaa !9
  %39 = mul nsw i32 2, %38
  %40 = sext i32 %39 to i64
  %41 = sub i64 0, %40
  %42 = getelementptr inbounds i16, ptr %37, i64 %41
  store ptr %42, ptr %17, align 8, !tbaa !16
  call void @llvm.lifetime.start.p0(i64 4, ptr %18) #9
  %43 = load ptr, ptr %15, align 8, !tbaa !16
  %44 = getelementptr inbounds i16, ptr %43, i64 1
  %45 = load i16, ptr %44, align 2, !tbaa !19
  %46 = zext i16 %45 to i32
  %47 = load ptr, ptr %15, align 8, !tbaa !16
  %48 = getelementptr inbounds i16, ptr %47, i64 -1
  %49 = load i16, ptr %48, align 2, !tbaa !19
  %50 = zext i16 %49 to i32
  %51 = sub nsw i32 %46, %50
  store i32 %51, ptr %18, align 4, !tbaa !9
  call void @llvm.lifetime.start.p0(i64 4, ptr %19) #9
  %52 = load ptr, ptr %16, align 8, !tbaa !16
  %53 = getelementptr inbounds i16, ptr %52, i64 0
  %54 = load i16, ptr %53, align 2, !tbaa !19
  %55 = zext i16 %54 to i32
  %56 = load ptr, ptr %17, align 8, !tbaa !16
  %57 = getelementptr inbounds i16, ptr %56, i64 0
  %58 = load i16, ptr %57, align 2, !tbaa !19
  %59 = zext i16 %58 to i32
  %60 = sub nsw i32 %55, %59
  store i32 %60, ptr %19, align 4, !tbaa !9
  store i32 2, ptr %11, align 4, !tbaa !9
  br label %61

61:                                               ; preds = %105, %4
  %62 = load i32, ptr %11, align 4, !tbaa !9
  %63 = icmp sle i32 %62, 8
  br i1 %63, label %64, label %108

64:                                               ; preds = %61
  %65 = load i32, ptr %14, align 4, !tbaa !9
  %66 = load ptr, ptr %16, align 8, !tbaa !16
  %67 = sext i32 %65 to i64
  %68 = getelementptr inbounds i16, ptr %66, i64 %67
  store ptr %68, ptr %16, align 8, !tbaa !16
  %69 = load i32, ptr %14, align 4, !tbaa !9
  %70 = load ptr, ptr %17, align 8, !tbaa !16
  %71 = sext i32 %69 to i64
  %72 = sub i64 0, %71
  %73 = getelementptr inbounds i16, ptr %70, i64 %72
  store ptr %73, ptr %17, align 8, !tbaa !16
  %74 = load i32, ptr %11, align 4, !tbaa !9
  %75 = load ptr, ptr %15, align 8, !tbaa !16
  %76 = load i32, ptr %11, align 4, !tbaa !9
  %77 = sext i32 %76 to i64
  %78 = getelementptr inbounds i16, ptr %75, i64 %77
  %79 = load i16, ptr %78, align 2, !tbaa !19
  %80 = zext i16 %79 to i32
  %81 = load ptr, ptr %15, align 8, !tbaa !16
  %82 = load i32, ptr %11, align 4, !tbaa !9
  %83 = sub nsw i32 0, %82
  %84 = sext i32 %83 to i64
  %85 = getelementptr inbounds i16, ptr %81, i64 %84
  %86 = load i16, ptr %85, align 2, !tbaa !19
  %87 = zext i16 %86 to i32
  %88 = sub nsw i32 %80, %87
  %89 = mul nsw i32 %74, %88
  %90 = load i32, ptr %18, align 4, !tbaa !9
  %91 = add nsw i32 %90, %89
  store i32 %91, ptr %18, align 4, !tbaa !9
  %92 = load i32, ptr %11, align 4, !tbaa !9
  %93 = load ptr, ptr %16, align 8, !tbaa !16
  %94 = getelementptr inbounds i16, ptr %93, i64 0
  %95 = load i16, ptr %94, align 2, !tbaa !19
  %96 = zext i16 %95 to i32
  %97 = load ptr, ptr %17, align 8, !tbaa !16
  %98 = getelementptr inbounds i16, ptr %97, i64 0
  %99 = load i16, ptr %98, align 2, !tbaa !19
  %100 = zext i16 %99 to i32
  %101 = sub nsw i32 %96, %100
  %102 = mul nsw i32 %92, %101
  %103 = load i32, ptr %19, align 4, !tbaa !9
  %104 = add nsw i32 %103, %102
  store i32 %104, ptr %19, align 4, !tbaa !9
  br label %105

105:                                              ; preds = %64
  %106 = load i32, ptr %11, align 4, !tbaa !9
  %107 = add nsw i32 %106, 1
  store i32 %107, ptr %11, align 4, !tbaa !9
  br label %61, !llvm.loop !313

108:                                              ; preds = %61
  %109 = load i32, ptr %7, align 4, !tbaa !9
  %110 = icmp ne i32 %109, 0
  br i1 %110, label %111, label %123

111:                                              ; preds = %108
  %112 = load i32, ptr %18, align 4, !tbaa !9
  %113 = sdiv i32 %112, 4
  %114 = mul nsw i32 5, %113
  %115 = sdiv i32 %114, 16
  store i32 %115, ptr %18, align 4, !tbaa !9
  %116 = load i32, ptr %19, align 4, !tbaa !9
  %117 = sdiv i32 %116, 4
  %118 = mul nsw i32 5, %117
  %119 = sdiv i32 %118, 16
  store i32 %119, ptr %19, align 4, !tbaa !9
  %120 = load i32, ptr %18, align 4, !tbaa !9
  store i32 %120, ptr %9, align 4, !tbaa !9
  %121 = load i32, ptr %19, align 4, !tbaa !9
  store i32 %121, ptr %18, align 4, !tbaa !9
  %122 = load i32, ptr %9, align 4, !tbaa !9
  store i32 %122, ptr %19, align 4, !tbaa !9
  br label %147

123:                                              ; preds = %108
  %124 = load i32, ptr %8, align 4, !tbaa !9
  %125 = icmp ne i32 %124, 0
  br i1 %125, label %126, label %137

126:                                              ; preds = %123
  %127 = load i32, ptr %18, align 4, !tbaa !9
  %128 = load i32, ptr %18, align 4, !tbaa !9
  %129 = ashr i32 %128, 2
  %130 = add nsw i32 %127, %129
  %131 = ashr i32 %130, 4
  store i32 %131, ptr %18, align 4, !tbaa !9
  %132 = load i32, ptr %19, align 4, !tbaa !9
  %133 = load i32, ptr %19, align 4, !tbaa !9
  %134 = ashr i32 %133, 2
  %135 = add nsw i32 %132, %134
  %136 = ashr i32 %135, 4
  store i32 %136, ptr %19, align 4, !tbaa !9
  br label %146

137:                                              ; preds = %123
  %138 = load i32, ptr %18, align 4, !tbaa !9
  %139 = mul nsw i32 5, %138
  %140 = add nsw i32 %139, 32
  %141 = ashr i32 %140, 6
  store i32 %141, ptr %18, align 4, !tbaa !9
  %142 = load i32, ptr %19, align 4, !tbaa !9
  %143 = mul nsw i32 5, %142
  %144 = add nsw i32 %143, 32
  %145 = ashr i32 %144, 6
  store i32 %145, ptr %19, align 4, !tbaa !9
  br label %146

146:                                              ; preds = %137, %126
  br label %147

147:                                              ; preds = %146, %111
  %148 = load ptr, ptr %16, align 8, !tbaa !16
  %149 = getelementptr inbounds i16, ptr %148, i64 0
  %150 = load i16, ptr %149, align 2, !tbaa !19
  %151 = zext i16 %150 to i32
  %152 = load ptr, ptr %17, align 8, !tbaa !16
  %153 = getelementptr inbounds i16, ptr %152, i64 16
  %154 = load i16, ptr %153, align 2, !tbaa !19
  %155 = zext i16 %154 to i32
  %156 = add nsw i32 %151, %155
  %157 = add nsw i32 %156, 1
  %158 = mul nsw i32 16, %157
  %159 = load i32, ptr %19, align 4, !tbaa !9
  %160 = load i32, ptr %18, align 4, !tbaa !9
  %161 = add nsw i32 %159, %160
  %162 = mul nsw i32 7, %161
  %163 = sub nsw i32 %158, %162
  store i32 %163, ptr %12, align 4, !tbaa !9
  store i32 16, ptr %10, align 4, !tbaa !9
  br label %164

164:                                              ; preds = %232, %147
  %165 = load i32, ptr %10, align 4, !tbaa !9
  %166 = icmp sgt i32 %165, 0
  br i1 %166, label %167, label %235

167:                                              ; preds = %164
  call void @llvm.lifetime.start.p0(i64 4, ptr %20) #9
  %168 = load i32, ptr %12, align 4, !tbaa !9
  store i32 %168, ptr %20, align 4, !tbaa !9
  %169 = load i32, ptr %19, align 4, !tbaa !9
  %170 = load i32, ptr %12, align 4, !tbaa !9
  %171 = add nsw i32 %170, %169
  store i32 %171, ptr %12, align 4, !tbaa !9
  store i32 -16, ptr %9, align 4, !tbaa !9
  br label %172

172:                                              ; preds = %224, %167
  %173 = load i32, ptr %9, align 4, !tbaa !9
  %174 = icmp slt i32 %173, 0
  br i1 %174, label %175, label %227

175:                                              ; preds = %172
  %176 = load i32, ptr %20, align 4, !tbaa !9
  %177 = ashr i32 %176, 5
  %178 = call i32 @av_clip_uintp2_c(i32 noundef %177, i32 noundef 9) #10
  %179 = trunc i32 %178 to i16
  %180 = load ptr, ptr %13, align 8, !tbaa !16
  %181 = load i32, ptr %9, align 4, !tbaa !9
  %182 = add nsw i32 16, %181
  %183 = sext i32 %182 to i64
  %184 = getelementptr inbounds i16, ptr %180, i64 %183
  store i16 %179, ptr %184, align 2, !tbaa !19
  %185 = load i32, ptr %20, align 4, !tbaa !9
  %186 = load i32, ptr %18, align 4, !tbaa !9
  %187 = add nsw i32 %185, %186
  %188 = ashr i32 %187, 5
  %189 = call i32 @av_clip_uintp2_c(i32 noundef %188, i32 noundef 9) #10
  %190 = trunc i32 %189 to i16
  %191 = load ptr, ptr %13, align 8, !tbaa !16
  %192 = load i32, ptr %9, align 4, !tbaa !9
  %193 = add nsw i32 17, %192
  %194 = sext i32 %193 to i64
  %195 = getelementptr inbounds i16, ptr %191, i64 %194
  store i16 %190, ptr %195, align 2, !tbaa !19
  %196 = load i32, ptr %20, align 4, !tbaa !9
  %197 = load i32, ptr %18, align 4, !tbaa !9
  %198 = mul nsw i32 2, %197
  %199 = add nsw i32 %196, %198
  %200 = ashr i32 %199, 5
  %201 = call i32 @av_clip_uintp2_c(i32 noundef %200, i32 noundef 9) #10
  %202 = trunc i32 %201 to i16
  %203 = load ptr, ptr %13, align 8, !tbaa !16
  %204 = load i32, ptr %9, align 4, !tbaa !9
  %205 = add nsw i32 18, %204
  %206 = sext i32 %205 to i64
  %207 = getelementptr inbounds i16, ptr %203, i64 %206
  store i16 %202, ptr %207, align 2, !tbaa !19
  %208 = load i32, ptr %20, align 4, !tbaa !9
  %209 = load i32, ptr %18, align 4, !tbaa !9
  %210 = mul nsw i32 3, %209
  %211 = add nsw i32 %208, %210
  %212 = ashr i32 %211, 5
  %213 = call i32 @av_clip_uintp2_c(i32 noundef %212, i32 noundef 9) #10
  %214 = trunc i32 %213 to i16
  %215 = load ptr, ptr %13, align 8, !tbaa !16
  %216 = load i32, ptr %9, align 4, !tbaa !9
  %217 = add nsw i32 19, %216
  %218 = sext i32 %217 to i64
  %219 = getelementptr inbounds i16, ptr %215, i64 %218
  store i16 %214, ptr %219, align 2, !tbaa !19
  %220 = load i32, ptr %18, align 4, !tbaa !9
  %221 = mul nsw i32 4, %220
  %222 = load i32, ptr %20, align 4, !tbaa !9
  %223 = add nsw i32 %222, %221
  store i32 %223, ptr %20, align 4, !tbaa !9
  br label %224

224:                                              ; preds = %175
  %225 = load i32, ptr %9, align 4, !tbaa !9
  %226 = add nsw i32 %225, 4
  store i32 %226, ptr %9, align 4, !tbaa !9
  br label %172, !llvm.loop !314

227:                                              ; preds = %172
  %228 = load i32, ptr %14, align 4, !tbaa !9
  %229 = load ptr, ptr %13, align 8, !tbaa !16
  %230 = sext i32 %228 to i64
  %231 = getelementptr inbounds i16, ptr %229, i64 %230
  store ptr %231, ptr %13, align 8, !tbaa !16
  call void @llvm.lifetime.end.p0(i64 4, ptr %20) #9
  br label %232

232:                                              ; preds = %227
  %233 = load i32, ptr %10, align 4, !tbaa !9
  %234 = add nsw i32 %233, -1
  store i32 %234, ptr %10, align 4, !tbaa !9
  br label %164, !llvm.loop !315

235:                                              ; preds = %164
  call void @llvm.lifetime.end.p0(i64 4, ptr %19) #9
  call void @llvm.lifetime.end.p0(i64 4, ptr %18) #9
  call void @llvm.lifetime.end.p0(i64 8, ptr %17) #9
  call void @llvm.lifetime.end.p0(i64 8, ptr %16) #9
  call void @llvm.lifetime.end.p0(i64 8, ptr %15) #9
  call void @llvm.lifetime.end.p0(i64 4, ptr %14) #9
  call void @llvm.lifetime.end.p0(i64 8, ptr %13) #9
  call void @llvm.lifetime.end.p0(i64 4, ptr %12) #9
  call void @llvm.lifetime.end.p0(i64 4, ptr %11) #9
  call void @llvm.lifetime.end.p0(i64 4, ptr %10) #9
  call void @llvm.lifetime.end.p0(i64 4, ptr %9) #9
  ret void
}

; Function Attrs: nounwind uwtable
define internal void @pred16x16_plane_9_c(ptr noundef %0, i64 noundef %1) #1 {
  %3 = alloca ptr, align 8
  %4 = alloca i64, align 8
  store ptr %0, ptr %3, align 8, !tbaa !12
  store i64 %1, ptr %4, align 8, !tbaa !14
  %5 = load ptr, ptr %3, align 8, !tbaa !12
  %6 = load i64, ptr %4, align 8, !tbaa !14
  call void @pred16x16_plane_compat_9_c(ptr noundef %5, i64 noundef %6, i32 noundef 0, i32 noundef 0)
  ret void
}