; Function Attrs: nofree norecurse nosync nounwind memory(argmem: readwrite) uwtable
define internal void @pred16x16_plane_9_c(ptr noundef captures(none) %0, i64 noundef %1) #3 {
  %3 = lshr i64 %1, 1
  %4 = trunc i64 %3 to i32
  %5 = getelementptr inbounds nuw i8, ptr %0, i64 14
  %sext.i = shl i64 %3, 32
  %6 = ashr exact i64 %sext.i, 32
  %7 = sub nsw i64 0, %6
  %8 = getelementptr inbounds i16, ptr %5, i64 %7
  %9 = shl nsw i32 %4, 3
  %10 = sext i32 %9 to i64
  %11 = getelementptr inbounds i16, ptr %0, i64 %10
  %12 = getelementptr inbounds i8, ptr %11, i64 -2
  %13 = shl nsw i32 %4, 1
  %14 = sext i32 %13 to i64
  %15 = sub nsw i64 0, %14
  %16 = getelementptr inbounds i16, ptr %12, i64 %15
  %17 = getelementptr inbounds nuw i8, ptr %8, i64 2
  %18 = load i16, ptr %17, align 2, !tbaa !9
  %19 = zext i16 %18 to i32
  %20 = getelementptr inbounds i8, ptr %8, i64 -2
  %21 = load i16, ptr %20, align 2, !tbaa !9
  %22 = zext i16 %21 to i32
  %23 = sub nsw i32 %19, %22
  %24 = load i16, ptr %12, align 2, !tbaa !9
  %25 = zext i16 %24 to i32
  %26 = load i16, ptr %16, align 2, !tbaa !9
  %27 = zext i16 %26 to i32
  %28 = sub nsw i32 %25, %27
  br label %29

29:                                               ; preds = %29, %2
  %indvars.iv.i = phi i64 [ 2, %2 ], [ %indvars.iv.next.i, %29 ]
  %.07093.i = phi i32 [ %28, %2 ], [ %49, %29 ]
  %.07192.i = phi i32 [ %23, %2 ], [ %42, %29 ]
  %.07391.i = phi ptr [ %16, %2 ], [ %31, %29 ]
  %.07490.i = phi ptr [ %12, %2 ], [ %30, %29 ]
  %30 = getelementptr inbounds i16, ptr %.07490.i, i64 %6
  %31 = getelementptr inbounds i16, ptr %.07391.i, i64 %7
  %32 = getelementptr inbounds nuw i16, ptr %8, i64 %indvars.iv.i
  %33 = load i16, ptr %32, align 2, !tbaa !9
  %34 = zext i16 %33 to i32
  %35 = sub nsw i64 0, %indvars.iv.i
  %36 = getelementptr inbounds i16, ptr %8, i64 %35
  %37 = load i16, ptr %36, align 2, !tbaa !9
  %38 = zext i16 %37 to i32
  %39 = sub nsw i32 %34, %38
  %40 = trunc nuw nsw i64 %indvars.iv.i to i32
  %41 = mul nsw i32 %39, %40
  %42 = add nsw i32 %41, %.07192.i
  %43 = load i16, ptr %30, align 2, !tbaa !9
  %44 = zext i16 %43 to i32
  %45 = load i16, ptr %31, align 2, !tbaa !9
  %46 = zext i16 %45 to i32
  %47 = sub nsw i32 %44, %46
  %48 = mul nsw i32 %47, %40
  %49 = add nsw i32 %48, %.07093.i
  %indvars.iv.next.i = add nuw nsw i64 %indvars.iv.i, 1
  %exitcond.not.i = icmp eq i64 %indvars.iv.next.i, 9
  br i1 %exitcond.not.i, label %50, label %29, !llvm.loop !48

50:                                               ; preds = %29
  %51 = mul nsw i32 %42, 5
  %52 = add nsw i32 %51, 32
  %53 = ashr i32 %52, 6
  %54 = mul nsw i32 %49, 5
  %55 = add nsw i32 %54, 32
  %56 = ashr i32 %55, 6
  %57 = getelementptr inbounds nuw i8, ptr %31, i64 32
  %58 = load i16, ptr %57, align 2, !tbaa !9
  %59 = zext i16 %58 to i32
  %60 = add nuw nsw i32 %59, %44
  %61 = shl nuw nsw i32 %60, 4
  %62 = add nsw i32 %56, %53
  %.neg.i = mul nsw i32 %62, -7
  %63 = add nsw i32 %.neg.i, 16
  %64 = add nsw i32 %63, %61
  %65 = shl nsw i32 %53, 1
  %66 = mul nsw i32 %53, 3
  %67 = shl nsw i32 %53, 2
  br label %68

68:                                               ; preds = %95, %50
  %.07698.i = phi i32 [ 16, %50 ], [ %98, %95 ]
  %.07797.i = phi ptr [ %0, %50 ], [ %97, %95 ]
  %.07896.i = phi i32 [ %64, %50 ], [ %96, %95 ]
  br label %69

69:                                               ; preds = %69, %68
  %indvars.iv103.i = phi i64 [ -16, %68 ], [ %indvars.iv.next104.i, %69 ]
  %.095.i = phi i32 [ %.07896.i, %68 ], [ %94, %69 ]
  %70 = ashr i32 %.095.i, 5
  %71 = tail call i32 @llvm.smax.i32(i32 %70, i32 0)
  %72 = tail call i32 @llvm.umin.i32(i32 %71, i32 511)
  %73 = trunc nuw nsw i32 %72 to i16
  %74 = getelementptr i16, ptr %.07797.i, i64 %indvars.iv103.i
  %75 = getelementptr i8, ptr %74, i64 32
  store i16 %73, ptr %75, align 2, !tbaa !9
  %76 = add nsw i32 %.095.i, %53
  %77 = ashr i32 %76, 5
  %78 = tail call i32 @llvm.smax.i32(i32 %77, i32 0)
  %79 = tail call i32 @llvm.umin.i32(i32 %78, i32 511)
  %80 = trunc nuw nsw i32 %79 to i16
  %81 = getelementptr i8, ptr %74, i64 34
  store i16 %80, ptr %81, align 2, !tbaa !9
  %82 = add nsw i32 %.095.i, %65
  %83 = ashr i32 %82, 5
  %84 = tail call i32 @llvm.smax.i32(i32 %83, i32 0)
  %85 = tail call i32 @llvm.umin.i32(i32 %84, i32 511)
  %86 = trunc nuw nsw i32 %85 to i16
  %87 = getelementptr i8, ptr %74, i64 36
  store i16 %86, ptr %87, align 2, !tbaa !9
  %88 = add nsw i32 %.095.i, %66
  %89 = ashr i32 %88, 5
  %90 = tail call i32 @llvm.smax.i32(i32 %89, i32 0)
  %91 = tail call i32 @llvm.umin.i32(i32 %90, i32 511)
  %92 = trunc nuw nsw i32 %91 to i16
  %93 = getelementptr i8, ptr %74, i64 38
  store i16 %92, ptr %93, align 2, !tbaa !9
  %94 = add nsw i32 %.095.i, %67
  %indvars.iv.next104.i = add nuw nsw i64 %indvars.iv103.i, 4
  %.not.i = icmp eq i64 %indvars.iv103.i, -4
  br i1 %.not.i, label %95, label %69, !llvm.loop !49

95:                                               ; preds = %69
  %96 = add nsw i32 %.07896.i, %56
  %97 = getelementptr inbounds i16, ptr %.07797.i, i64 %6
  %98 = add nsw i32 %.07698.i, -1
  %99 = icmp samesign ugt i32 %.07698.i, 1
  br i1 %99, label %68, label %pred16x16_plane_compat_9_c.exit, !llvm.loop !50

pred16x16_plane_compat_9_c.exit:                  ; preds = %95
  ret void
}